target datalayout = "e-m:e-p270:32:32-p271:32:32-p272:64:64-i64:64-i128:128-f80:128-n8:16:32:64-S128"
target triple = "x86_64-pc-linux-gnu"

%struct.Sat_MmFixed_t_ = type { i32, i32, i32, i32, ptr, i32, i32, i32, ptr, i32, i32 }

; Function Attrs: nounwind uwtable
define ptr @Sat_MmFixedStart(i32 noundef %0) #0 {
  %2 = alloca i32, align 4
  %3 = alloca ptr, align 8
  store i32 %0, ptr %2, align 4, !tbaa !3
  call void @llvm.lifetime.start.p0(i64 8, ptr %3) #7
  %4 = call noalias ptr @malloc(i64 noundef 56) #8
  store ptr %4, ptr %3, align 8, !tbaa !7
  %5 = load ptr, ptr %3, align 8, !tbaa !7
  call void @llvm.memset.p0.i64(ptr align 8 %5, i8 0, i64 56, i1 false)
  %6 = load i32, ptr %2, align 4, !tbaa !3
  %7 = load ptr, ptr %3, align 8, !tbaa !7
  %8 = getelementptr inbounds nuw %struct.Sat_MmFixed_t_, ptr %7, i32 0, i32 0
  store i32 %6, ptr %8, align 8, !tbaa !10
  %9 = load ptr, ptr %3, align 8, !tbaa !7
  %10 = getelementptr inbounds nuw %struct.Sat_MmFixed_t_, ptr %9, i32 0, i32 1
  store i32 0, ptr %10, align 4, !tbaa !14
  %11 = load ptr, ptr %3, align 8, !tbaa !7
  %12 = getelementptr inbounds nuw %struct.Sat_MmFixed_t_, ptr %11, i32 0, i32 2
  store i32 0, ptr %12, align 8, !tbaa !15
  %13 = load ptr, ptr %3, align 8, !tbaa !7
  %14 = getelementptr inbounds nuw %struct.Sat_MmFixed_t_, ptr %13, i32 0, i32 4
  store ptr null, ptr %14, align 8, !tbaa !16
  %15 = load i32, ptr %2, align 4, !tbaa !3
  %16 = mul nsw i32 %15, 1024
  %17 = icmp slt i32 %16, 65536
  br i1 %17, label %18, label %21

18:                                               ; preds = %1
  %19 = load ptr, ptr %3, align 8, !tbaa !7
  %20 = getelementptr inbounds nuw %struct.Sat_MmFixed_t_, ptr %19, i32 0, i32 5
  store i32 1024, ptr %20, align 8, !tbaa !17
  br label %26

21:                                               ; preds = %1
  %22 = load i32, ptr %2, align 4, !tbaa !3
  %23 = sdiv i32 65536, %22
  %24 = load ptr, ptr %3, align 8, !tbaa !7
  %25 = getelementptr inbounds nuw %struct.Sat_MmFixed_t_, ptr %24, i32 0, i32 5
  store i32 %23, ptr %25, align 8, !tbaa !17
  br label %26

26:                                               ; preds = %21, %18
  %27 = load ptr, ptr %3, align 8, !tbaa !7
  %28 = getelementptr inbounds nuw %struct.Sat_MmFixed_t_, ptr %27, i32 0, i32 5
  %29 = load i32, ptr %28, align 8, !tbaa !17
  %30 = icmp slt i32 %29, 8
  br i1 %30, label %31, label %34

31:                                               ; preds = %26
  %32 = load ptr, ptr %3, align 8, !tbaa !7
  %33 = getelementptr inbounds nuw %struct.Sat_MmFixed_t_, ptr %32, i32 0, i32 5
  store i32 8, ptr %33, align 8, !tbaa !17
  br label %34

34:                                               ; preds = %31, %26
  %35 = load ptr, ptr %3, align 8, !tbaa !7
  %36 = getelementptr inbounds nuw %struct.Sat_MmFixed_t_, ptr %35, i32 0, i32 6
  store i32 64, ptr %36, align 4, !tbaa !18
  %37 = load ptr, ptr %3, align 8, !tbaa !7
  %38 = getelementptr inbounds nuw %struct.Sat_MmFixed_t_, ptr %37, i32 0, i32 7
  store i32 0, ptr %38, align 8, !tbaa !19
  %39 = load ptr, ptr %3, align 8, !tbaa !7
  %40 = getelementptr inbounds nuw %struct.Sat_MmFixed_t_, ptr %39, i32 0, i32 6
  %41 = load i32, ptr %40, align 4, !tbaa !18
  %42 = sext i32 %41 to i64
  %43 = mul i64 8, %42
  %44 = call noalias ptr @malloc(i64 noundef %43) #8
  %45 = load ptr, ptr %3, align 8, !tbaa !7
  %46 = getelementptr inbounds nuw %struct.Sat_MmFixed_t_, ptr %45, i32 0, i32 8
  store ptr %44, ptr %46, align 8, !tbaa !20
  %47 = load ptr, ptr %3, align 8, !tbaa !7
  %48 = getelementptr inbounds nuw %struct.Sat_MmFixed_t_, ptr %47, i32 0, i32 9
  store i32 0, ptr %48, align 8, !tbaa !21
  %49 = load ptr, ptr %3, align 8, !tbaa !7
  %50 = getelementptr inbounds nuw %struct.Sat_MmFixed_t_, ptr %49, i32 0, i32 10
  store i32 0, ptr %50, align 4, !tbaa !22
  %51 = load ptr, ptr %3, align 8, !tbaa !7
  call void @llvm.lifetime.end.p0(i64 8, ptr %3) #7
  ret ptr %51
}