; Function Attrs: mustprogress nofree nounwind willreturn memory(write, argmem: none, inaccessiblemem: readwrite) uwtable
define noalias noundef ptr @Sat_MmFixedStart(i32 noundef %0) local_unnamed_addr #0 {
  %calloc = tail call dereferenceable_or_null(56) ptr @calloc(i64 1, i64 56)
  store i32 %0, ptr %calloc, align 8, !tbaa !3
  %2 = icmp slt i32 %0, 64
  br i1 %2, label %5, label %3

3:                                                ; preds = %1
  %4 = udiv i32 65536, %0
  br label %5

5:                                                ; preds = %1, %3
  %.sink = phi i32 [ %4, %3 ], [ 1024, %1 ]
  %6 = getelementptr inbounds nuw i8, ptr %calloc, i64 24
  %7 = tail call i32 @llvm.umax.i32(i32 %.sink, i32 8)
  store i32 %7, ptr %6, align 8
  %8 = getelementptr inbounds nuw i8, ptr %calloc, i64 28
  store i32 64, ptr %8, align 4, !tbaa !11
  %9 = getelementptr inbounds nuw i8, ptr %calloc, i64 32
  store i32 0, ptr %9, align 8, !tbaa !12
  %10 = tail call noalias dereferenceable_or_null(512) ptr @malloc(i64 noundef 512) #14
  %11 = getelementptr inbounds nuw i8, ptr %calloc, i64 40
  store ptr %10, ptr %11, align 8, !tbaa !13
  %12 = getelementptr inbounds nuw i8, ptr %calloc, i64 48
  store i32 0, ptr %12, align 8, !tbaa !14
  %13 = getelementptr inbounds nuw i8, ptr %calloc, i64 52
  store i32 0, ptr %13, align 4, !tbaa !15
  ret ptr %calloc
}